; Function Attrs: nounwind uwtable
define range(i32 -173, 1) i32 @AddSigner(ptr noundef %0, ptr noundef %1) local_unnamed_addr #0 {
  %3 = icmp eq ptr %0, null
  %4 = icmp eq ptr %1, null
  %or.cond = or i1 %3, %4
  br i1 %or.cond, label %61, label %5

5:                                                ; preds = %2
  %6 = getelementptr inbounds nuw i8, ptr %1, i64 76
  %7 = load i8, ptr %6, align 1, !tbaa !43
  %8 = getelementptr inbounds nuw i8, ptr %1, i64 77
  %9 = load i8, ptr %8, align 1, !tbaa !43
  %10 = getelementptr inbounds nuw i8, ptr %1, i64 78
  %11 = load i8, ptr %10, align 1, !tbaa !43
  %12 = getelementptr inbounds nuw i8, ptr %1, i64 79
  %13 = load i8, ptr %12, align 1, !tbaa !43
  %14 = getelementptr inbounds nuw i8, ptr %0, i64 184
  %15 = tail call i32 @wc_LockMutex(ptr noundef nonnull %14) #22
  %.not.i = icmp eq i32 %15, 0
  br i1 %.not.i, label %16, label %AlreadySigner.exit.thread

16:                                               ; preds = %5
  %17 = zext i8 %9 to i32
  %18 = shl nuw nsw i32 %17, 16
  %19 = zext i8 %7 to i32
  %20 = shl nuw i32 %19, 24
  %21 = or disjoint i32 %18, %20
  %22 = zext i8 %11 to i32
  %23 = shl nuw nsw i32 %22, 8
  %24 = or disjoint i32 %21, %23
  %25 = zext i8 %13 to i32
  %26 = or disjoint i32 %24, %25
  %27 = urem i32 %26, 11
  %28 = zext nneg i32 %27 to i64
  %29 = getelementptr inbounds nuw [11 x ptr], ptr %0, i64 0, i64 %28
  %.01828.i = load ptr, ptr %29, align 8, !tbaa !177
  %.not2329.i = icmp eq ptr %.01828.i, null
  br i1 %.not2329.i, label %AlreadySigner.exit.thread23, label %.lr.ph.i

30:                                               ; preds = %.lr.ph.i
  %31 = getelementptr inbounds nuw i8, ptr %.01830.i, i64 104
  %.018.i = load ptr, ptr %31, align 8, !tbaa !177
  %.not23.i = icmp eq ptr %.018.i, null
  br i1 %.not23.i, label %AlreadySigner.exit.thread23, label %.lr.ph.i

.lr.ph.i:                                         ; preds = %16, %30
  %.01830.i = phi ptr [ %.018.i, %30 ], [ %.01828.i, %16 ]
  %32 = getelementptr inbounds nuw i8, ptr %.01830.i, i64 76
  %bcmp.i = tail call i32 @bcmp(ptr noundef nonnull readonly dereferenceable(20) %6, ptr noundef nonnull dereferenceable(20) %32, i64 20)
  %33 = icmp eq i32 %bcmp.i, 0
  br i1 %33, label %35, label %30

AlreadySigner.exit.thread23:                      ; preds = %30, %16
  %34 = tail call i32 @wc_UnLockMutex(ptr noundef nonnull %14) #22
  br label %AlreadySigner.exit.thread

35:                                               ; preds = %.lr.ph.i
  %36 = tail call i32 @wc_UnLockMutex(ptr noundef nonnull %14) #22
  %37 = getelementptr inbounds nuw i8, ptr %0, i64 88
  %38 = load ptr, ptr %37, align 8, !tbaa !16
  tail call void @FreeSigner(ptr noundef nonnull %1, ptr noundef %38) #22
  br label %61

AlreadySigner.exit.thread:                        ; preds = %5, %AlreadySigner.exit.thread23
  %39 = load i8, ptr %6, align 1, !tbaa !43
  %40 = load i8, ptr %8, align 1, !tbaa !43
  %41 = load i8, ptr %10, align 1, !tbaa !43
  %42 = load i8, ptr %12, align 1, !tbaa !43
  %43 = tail call i32 @wc_LockMutex(ptr noundef nonnull %14) #22
  %.not20 = icmp eq i32 %43, 0
  br i1 %.not20, label %44, label %61

44:                                               ; preds = %AlreadySigner.exit.thread
  %45 = zext i8 %40 to i32
  %46 = shl nuw nsw i32 %45, 16
  %47 = zext i8 %39 to i32
  %48 = shl nuw i32 %47, 24
  %49 = or disjoint i32 %46, %48
  %50 = zext i8 %41 to i32
  %51 = shl nuw nsw i32 %50, 8
  %52 = or disjoint i32 %49, %51
  %53 = zext i8 %42 to i32
  %54 = or disjoint i32 %52, %53
  %55 = urem i32 %54, 11
  %56 = zext nneg i32 %55 to i64
  %57 = getelementptr inbounds nuw [11 x ptr], ptr %0, i64 0, i64 %56
  %58 = load ptr, ptr %57, align 8, !tbaa !177
  %59 = getelementptr inbounds nuw i8, ptr %1, i64 104
  store ptr %58, ptr %59, align 8, !tbaa !181
  store ptr %1, ptr %57, align 8, !tbaa !177
  %60 = tail call i32 @wc_UnLockMutex(ptr noundef nonnull %14) #22
  br label %61

61:                                               ; preds = %AlreadySigner.exit.thread, %2, %44, %35
  %.0 = phi i32 [ 0, %35 ], [ 0, %44 ], [ -173, %2 ], [ -106, %AlreadySigner.exit.thread ]
  ret i32 %.0
}